target datalayout = "e-m:e-p270:32:32-p271:32:32-p272:64:64-i64:64-i128:128-f80:128-n8:16:32:64-S128"
target triple = "x86_64-pc-linux-gnu"

%"class.std::__shared_count" = type { ptr }
%"class.duckdb::ColumnReader" = type { ptr, ptr, ptr, i64, i8, ptr, ptr, i64, i64, i64, %"class.duckdb::shared_ptr", %"class.duckdb::ResizeableBuffer", i32, %"class.duckdb::unique_ptr.11", %"class.duckdb::unique_ptr.11", %"class.duckdb::DictionaryDecoder", %"class.duckdb::DeltaBinaryPackedDecoder", %"class.duckdb::RLEDecoder", %"class.duckdb::DeltaLengthByteArrayDecoder", %"class.duckdb::DeltaByteArrayDecoder", %"class.duckdb::ByteStreamSplitDecoder", [2 x %"class.duckdb::ResizeableBuffer"] }
%"class.duckdb::shared_ptr" = type { %"class.std::shared_ptr" }
%"class.std::shared_ptr" = type { %"class.std::__shared_ptr" }
%"class.std::__shared_ptr" = type { ptr, %"class.std::__shared_count" }
%"class.duckdb::ResizeableBuffer" = type { %"class.duckdb::ByteBuffer", %"class.duckdb::AllocatedData", i64 }
%"class.duckdb::ByteBuffer" = type { ptr, i64 }
%"class.duckdb::AllocatedData" = type { %"class.duckdb::optional_ptr", ptr, i64 }
%"class.duckdb::optional_ptr" = type { ptr }
%"class.duckdb::unique_ptr.11" = type { %"class.std::unique_ptr.12" }
%"class.std::unique_ptr.12" = type { %"struct.std::__uniq_ptr_data.13" }
%"struct.std::__uniq_ptr_data.13" = type { %"class.std::__uniq_ptr_impl.14" }
%"class.std::__uniq_ptr_impl.14" = type { %"class.std::tuple.15" }
%"class.std::tuple.15" = type { %"struct.std::_Tuple_impl.16" }
%"struct.std::_Tuple_impl.16" = type { %"struct.std::_Head_base.19" }
%"struct.std::_Head_base.19" = type { ptr }
%"class.duckdb::DictionaryDecoder" = type { ptr, ptr, %"class.duckdb::unique_ptr.11", %"struct.duckdb::SelectionVector", %"struct.duckdb::SelectionVector", i64, %"class.duckdb::unique_ptr.24", %"class.duckdb::unique_ptr.33", i64, i8, %"class.std::__cxx11::basic_string" }
%"struct.duckdb::SelectionVector" = type { ptr, %"class.duckdb::shared_ptr.20" }
%"class.duckdb::shared_ptr.20" = type { %"class.std::shared_ptr.21" }
%"class.std::shared_ptr.21" = type { %"class.std::__shared_ptr.22" }
%"class.std::__shared_ptr.22" = type { ptr, %"class.std::__shared_count" }
%"class.duckdb::unique_ptr.24" = type { %"class.std::unique_ptr.25" }
%"class.std::unique_ptr.25" = type { %"struct.std::__uniq_ptr_data.26" }
%"struct.std::__uniq_ptr_data.26" = type { %"class.std::__uniq_ptr_impl.27" }
%"class.std::__uniq_ptr_impl.27" = type { %"class.std::tuple.28" }
%"class.std::tuple.28" = type { %"struct.std::_Tuple_impl.29" }
%"struct.std::_Tuple_impl.29" = type { %"struct.std::_Head_base.32" }
%"struct.std::_Head_base.32" = type { ptr }
%"class.duckdb::unique_ptr.33" = type { %"class.std::unique_ptr.34" }
%"class.std::unique_ptr.34" = type { %"struct.std::__uniq_ptr_data.35" }
%"struct.std::__uniq_ptr_data.35" = type { %"class.std::__uniq_ptr_impl.36" }
%"class.std::__uniq_ptr_impl.36" = type { %"class.std::tuple.37" }
%"class.std::tuple.37" = type { %"struct.std::_Tuple_impl.38" }
%"struct.std::_Tuple_impl.38" = type { %"struct.std::_Head_base.41" }
%"struct.std::_Head_base.41" = type { ptr }
%"class.std::__cxx11::basic_string" = type { %"struct.std::__cxx11::basic_string<char>::_Alloc_hider", i64, %union.anon }
%"struct.std::__cxx11::basic_string<char>::_Alloc_hider" = type { ptr }
%union.anon = type { i64, [8 x i8] }
%"class.duckdb::DeltaBinaryPackedDecoder" = type { ptr, ptr, %"class.duckdb::unique_ptr.42" }
%"class.duckdb::unique_ptr.42" = type { %"class.std::unique_ptr.43" }
%"class.std::unique_ptr.43" = type { %"struct.std::__uniq_ptr_data.44" }
%"struct.std::__uniq_ptr_data.44" = type { %"class.std::__uniq_ptr_impl.45" }
%"class.std::__uniq_ptr_impl.45" = type { %"class.std::tuple.46" }
%"class.std::tuple.46" = type { %"struct.std::_Tuple_impl.47" }
%"struct.std::_Tuple_impl.47" = type { %"struct.std::_Head_base.50" }
%"struct.std::_Head_base.50" = type { ptr }
%"class.duckdb::RLEDecoder" = type { ptr, ptr, %"class.duckdb::unique_ptr.11" }
%"class.duckdb::DeltaLengthByteArrayDecoder" = type { ptr, ptr, i64, i64 }
%"class.duckdb::DeltaByteArrayDecoder" = type { ptr, %"class.duckdb::unique_ptr.24", i64, i64 }
%"class.duckdb::ByteStreamSplitDecoder" = type { ptr, ptr, %"class.duckdb::unique_ptr.51" }
%"class.duckdb::unique_ptr.51" = type { %"class.std::unique_ptr.52" }
%"class.std::unique_ptr.52" = type { %"struct.std::__uniq_ptr_data.53" }
%"struct.std::__uniq_ptr_data.53" = type { %"class.std::__uniq_ptr_impl.54" }
%"class.std::__uniq_ptr_impl.54" = type { %"class.std::tuple.55" }
%"class.std::tuple.55" = type { %"struct.std::_Tuple_impl.56" }
%"struct.std::_Tuple_impl.56" = type { %"struct.std::_Head_base.59" }
%"struct.std::_Head_base.59" = type { ptr }
%"class.duckdb::unique_ptr" = type { %"class.std::unique_ptr" }
%"class.std::unique_ptr" = type { %"struct.std::__uniq_ptr_data" }
%"struct.std::__uniq_ptr_data" = type { %"class.std::__uniq_ptr_impl" }
%"class.std::__uniq_ptr_impl" = type { %"class.std::tuple" }
%"class.std::tuple" = type { %"struct.std::_Tuple_impl" }
%"struct.std::_Tuple_impl" = type { %"struct.std::_Head_base.1" }
%"struct.std::_Head_base.1" = type { ptr }
%"class.duckdb::StructColumnReader" = type { %"class.duckdb::ColumnReader", %"class.duckdb::vector.340" }
%"class.duckdb::vector.340" = type { %"class.std::vector.341" }
%"class.std::vector.341" = type { %"struct.std::_Vector_base.342" }
%"struct.std::_Vector_base.342" = type { %"struct.std::_Vector_base<duckdb::unique_ptr<duckdb::ColumnReader>, std::allocator<duckdb::unique_ptr<duckdb::ColumnReader>>>::_Vector_impl" }
%"struct.std::_Vector_base<duckdb::unique_ptr<duckdb::ColumnReader>, std::allocator<duckdb::unique_ptr<duckdb::ColumnReader>>>::_Vector_impl" = type { %"struct.std::_Vector_base<duckdb::unique_ptr<duckdb::ColumnReader>, std::allocator<duckdb::unique_ptr<duckdb::ColumnReader>>>::_Vector_impl_data" }
%"struct.std::_Vector_base<duckdb::unique_ptr<duckdb::ColumnReader>, std::allocator<duckdb::unique_ptr<duckdb::ColumnReader>>>::_Vector_impl_data" = type { ptr, ptr, ptr }
%"class.__gnu_cxx::__normal_iterator" = type { ptr }

; Function Attrs: mustprogress nounwind uwtable
define linkonce_odr noundef nonnull align 8 dereferenceable(8) ptr @_ZNSt10_Head_baseILm0EPN6duckdb12ColumnReaderELb0EE7_M_headERKS3_(ptr noundef nonnull align 8 dereferenceable(8) %0) #7 comdat align 2 {
  %2 = alloca ptr, align 8
  store ptr %0, ptr %2, align 8, !tbaa !423
  %3 = load ptr, ptr %2, align 8, !tbaa !423
  %4 = getelementptr inbounds nuw %"struct.std::_Head_base.1", ptr %3, i32 0, i32 0
  ret ptr %4
}

; Function Attrs: mustprogress nounwind uwtable
define linkonce_odr noundef nonnull align 8 dereferenceable(8) ptr @_ZNSt11_Tuple_implILm0EJPN6duckdb12ColumnReaderESt14default_deleteIS1_EEE7_M_headERKS5_(ptr noundef nonnull align 8 dereferenceable(8) %0) #7 comdat align 2 {
  %2 = alloca ptr, align 8
  store ptr %0, ptr %2, align 8, !tbaa !418
  %3 = load ptr, ptr %2, align 8, !tbaa !418
  %4 = call noundef nonnull align 8 dereferenceable(8) ptr @_ZNSt10_Head_baseILm0EPN6duckdb12ColumnReaderELb0EE7_M_headERKS3_(ptr noundef nonnull align 8 dereferenceable(8) %3) #3
  ret ptr %4
}

; Function Attrs: mustprogress nounwind uwtable
define linkonce_odr noundef nonnull align 8 dereferenceable(8) ptr @_ZSt12__get_helperILm0EPN6duckdb12ColumnReaderEJSt14default_deleteIS1_EEERKT0_RKSt11_Tuple_implIXT_EJS5_DpT1_EE(ptr noundef nonnull align 8 dereferenceable(8) %0) #7 comdat {
  %2 = alloca ptr, align 8
  store ptr %0, ptr %2, align 8, !tbaa !418
  %3 = load ptr, ptr %2, align 8, !tbaa !418
  %4 = call noundef nonnull align 8 dereferenceable(8) ptr @_ZNSt11_Tuple_implILm0EJPN6duckdb12ColumnReaderESt14default_deleteIS1_EEE7_M_headERKS5_(ptr noundef nonnull align 8 dereferenceable(8) %3) #3
  ret ptr %4
}

; Function Attrs: mustprogress nounwind uwtable
define linkonce_odr noundef nonnull align 8 dereferenceable(8) ptr @_ZSt3getILm0EJPN6duckdb12ColumnReaderESt14default_deleteIS1_EEERKNSt13tuple_elementIXT_ESt5tupleIJDpT0_EEE4typeERKS9_(ptr noundef nonnull align 8 dereferenceable(8) %0) #7 comdat {
  %2 = alloca ptr, align 8
  store ptr %0, ptr %2, align 8, !tbaa !416
  %3 = load ptr, ptr %2, align 8, !tbaa !416
  %4 = call noundef nonnull align 8 dereferenceable(8) ptr @_ZSt12__get_helperILm0EPN6duckdb12ColumnReaderEJSt14default_deleteIS1_EEERKT0_RKSt11_Tuple_implIXT_EJS5_DpT1_EE(ptr noundef nonnull align 8 dereferenceable(8) %3) #3
  ret ptr %4
}

; Function Attrs: mustprogress nounwind uwtable
define linkonce_odr noundef ptr @_ZNKSt15__uniq_ptr_implIN6duckdb12ColumnReaderESt14default_deleteIS1_EE6_M_ptrEv(ptr noundef nonnull align 8 dereferenceable(8) %0) #7 comdat align 2 {
  %2 = alloca ptr, align 8
  store ptr %0, ptr %2, align 8, !tbaa !414
  %3 = load ptr, ptr %2, align 8
  %4 = getelementptr inbounds nuw %"class.std::__uniq_ptr_impl", ptr %3, i32 0, i32 0
  %5 = call noundef nonnull align 8 dereferenceable(8) ptr @_ZSt3getILm0EJPN6duckdb12ColumnReaderESt14default_deleteIS1_EEERKNSt13tuple_elementIXT_ESt5tupleIJDpT0_EEE4typeERKS9_(ptr noundef nonnull align 8 dereferenceable(8) %4) #3
  %6 = load ptr, ptr %5, align 8, !tbaa !184
  ret ptr %6
}

; Function Attrs: mustprogress nounwind uwtable
define linkonce_odr noundef ptr @_ZNKSt10unique_ptrIN6duckdb12ColumnReaderESt14default_deleteIS1_EE3getEv(ptr noundef nonnull align 8 dereferenceable(8) %0) #7 comdat align 2 {
  %2 = alloca ptr, align 8
  store ptr %0, ptr %2, align 8, !tbaa !202
  %3 = load ptr, ptr %2, align 8
  %4 = getelementptr inbounds nuw %"class.std::unique_ptr", ptr %3, i32 0, i32 0
  %5 = call noundef ptr @_ZNKSt15__uniq_ptr_implIN6duckdb12ColumnReaderESt14default_deleteIS1_EE6_M_ptrEv(ptr noundef nonnull align 8 dereferenceable(8) %4) #3
  ret ptr %5
}

; Function Attrs: mustprogress nounwind uwtable
define linkonce_odr noundef nonnull align 8 dereferenceable(8) ptr @_ZNK9__gnu_cxx17__normal_iteratorIPN6duckdb10unique_ptrINS1_12ColumnReaderESt14default_deleteIS3_ELb1EEESt6vectorIS6_SaIS6_EEE4baseEv(ptr noundef nonnull align 8 dereferenceable(8) %0) #7 comdat align 2 {
  %2 = alloca ptr, align 8
  store ptr %0, ptr %2, align 8, !tbaa !381
  %3 = load ptr, ptr %2, align 8
  %4 = getelementptr inbounds nuw %"class.__gnu_cxx::__normal_iterator", ptr %3, i32 0, i32 0
  ret ptr %4
}

; Function Attrs: mustprogress nounwind uwtable
define linkonce_odr void @_ZN9__gnu_cxx17__normal_iteratorIPN6duckdb10unique_ptrINS1_12ColumnReaderESt14default_deleteIS3_ELb1EEESt6vectorIS6_SaIS6_EEEC2ERKS7_(ptr noundef nonnull align 8 dereferenceable(8) %0, ptr noundef nonnull align 8 dereferenceable(8) %1) unnamed_addr #7 comdat align 2 {
  %3 = alloca ptr, align 8
  %4 = alloca ptr, align 8
  store ptr %0, ptr %3, align 8, !tbaa !381
  store ptr %1, ptr %4, align 8, !tbaa !1227
  %5 = load ptr, ptr %3, align 8
  %6 = getelementptr inbounds nuw %"class.__gnu_cxx::__normal_iterator", ptr %5, i32 0, i32 0
  %7 = load ptr, ptr %4, align 8, !tbaa !1227
  %8 = load ptr, ptr %7, align 8, !tbaa !8
  store ptr %8, ptr %6, align 8, !tbaa !383
  ret void
}

; Function Attrs: mustprogress nounwind uwtable
define linkonce_odr noundef nonnull align 8 dereferenceable(8) ptr @_ZN9__gnu_cxx17__normal_iteratorIPN6duckdb10unique_ptrINS1_12ColumnReaderESt14default_deleteIS3_ELb1EEESt6vectorIS6_SaIS6_EEEppEv(ptr noundef nonnull align 8 dereferenceable(8) %0) #7 comdat align 2 {
  %2 = alloca ptr, align 8
  store ptr %0, ptr %2, align 8, !tbaa !381
  %3 = load ptr, ptr %2, align 8
  %4 = getelementptr inbounds nuw %"class.__gnu_cxx::__normal_iterator", ptr %3, i32 0, i32 0
  %5 = load ptr, ptr %4, align 8, !tbaa !383
  %6 = getelementptr inbounds nuw %"class.duckdb::unique_ptr", ptr %5, i32 1
  store ptr %6, ptr %4, align 8, !tbaa !383
  ret ptr %3
}

; Function Attrs: mustprogress nounwind uwtable
define linkonce_odr noundef zeroext i1 @_ZNKSt10unique_ptrIN6duckdb12ColumnReaderESt14default_deleteIS1_EEcvbEv(ptr noundef nonnull align 8 dereferenceable(8) %0) #7 comdat align 2 {
  %2 = alloca ptr, align 8
  store ptr %0, ptr %2, align 8, !tbaa !202
  %3 = load ptr, ptr %2, align 8
  %4 = call noundef ptr @_ZNKSt10unique_ptrIN6duckdb12ColumnReaderESt14default_deleteIS1_EE3getEv(ptr noundef nonnull align 8 dereferenceable(8) %3) #3
  %5 = icmp eq ptr %4, null
  %6 = select i1 %5, i1 false, i1 true
  ret i1 %6
}

; Function Attrs: mustprogress nounwind uwtable
define linkonce_odr noundef nonnull align 8 dereferenceable(8) ptr @_ZNK9__gnu_cxx17__normal_iteratorIPN6duckdb10unique_ptrINS1_12ColumnReaderESt14default_deleteIS3_ELb1EEESt6vectorIS6_SaIS6_EEEdeEv(ptr noundef nonnull align 8 dereferenceable(8) %0) #7 comdat align 2 {
  %2 = alloca ptr, align 8
  store ptr %0, ptr %2, align 8, !tbaa !381
  %3 = load ptr, ptr %2, align 8
  %4 = getelementptr inbounds nuw %"class.__gnu_cxx::__normal_iterator", ptr %3, i32 0, i32 0
  %5 = load ptr, ptr %4, align 8, !tbaa !383
  ret ptr %5
}

; Function Attrs: inlinehint mustprogress nounwind uwtable
define linkonce_odr noundef zeroext i1 @_ZN9__gnu_cxxneIPN6duckdb10unique_ptrINS1_12ColumnReaderESt14default_deleteIS3_ELb1EEESt6vectorIS6_SaIS6_EEEEbRKNS_17__normal_iteratorIT_T0_EESG_(ptr noundef nonnull align 8 dereferenceable(8) %0, ptr noundef nonnull align 8 dereferenceable(8) %1) #5 comdat {
  %3 = alloca ptr, align 8
  %4 = alloca ptr, align 8
  store ptr %0, ptr %3, align 8, !tbaa !381
  store ptr %1, ptr %4, align 8, !tbaa !381
  %5 = load ptr, ptr %3, align 8, !tbaa !381
  %6 = call noundef nonnull align 8 dereferenceable(8) ptr @_ZNK9__gnu_cxx17__normal_iteratorIPN6duckdb10unique_ptrINS1_12ColumnReaderESt14default_deleteIS3_ELb1EEESt6vectorIS6_SaIS6_EEE4baseEv(ptr noundef nonnull align 8 dereferenceable(8) %5) #3
  %7 = load ptr, ptr %6, align 8, !tbaa !8
  %8 = load ptr, ptr %4, align 8, !tbaa !381
  %9 = call noundef nonnull align 8 dereferenceable(8) ptr @_ZNK9__gnu_cxx17__normal_iteratorIPN6duckdb10unique_ptrINS1_12ColumnReaderESt14default_deleteIS3_ELb1EEESt6vectorIS6_SaIS6_EEE4baseEv(ptr noundef nonnull align 8 dereferenceable(8) %8) #3
  %10 = load ptr, ptr %9, align 8, !tbaa !8
  %11 = icmp ne ptr %7, %10
  ret i1 %11
}

; Function Attrs: mustprogress nounwind uwtable
define linkonce_odr ptr @_ZNSt6vectorIN6duckdb10unique_ptrINS0_12ColumnReaderESt14default_deleteIS2_ELb1EEESaIS5_EE3endEv(ptr noundef nonnull align 8 dereferenceable(24) %0) #7 comdat align 2 {
  %2 = alloca %"class.__gnu_cxx::__normal_iterator", align 8
  %3 = alloca ptr, align 8
  store ptr %0, ptr %3, align 8, !tbaa !379
  %4 = load ptr, ptr %3, align 8
  %5 = getelementptr inbounds nuw %"struct.std::_Vector_base.342", ptr %4, i32 0, i32 0
  %6 = getelementptr inbounds nuw %"struct.std::_Vector_base<duckdb::unique_ptr<duckdb::ColumnReader>, std::allocator<duckdb::unique_ptr<duckdb::ColumnReader>>>::_Vector_impl_data", ptr %5, i32 0, i32 1
  call void @_ZN9__gnu_cxx17__normal_iteratorIPN6duckdb10unique_ptrINS1_12ColumnReaderESt14default_deleteIS3_ELb1EEESt6vectorIS6_SaIS6_EEEC2ERKS7_(ptr noundef nonnull align 8 dereferenceable(8) %2, ptr noundef nonnull align 8 dereferenceable(8) %6) #3
  %7 = getelementptr inbounds nuw %"class.__gnu_cxx::__normal_iterator", ptr %2, i32 0, i32 0
  %8 = load ptr, ptr %7, align 8
  ret ptr %8
}

; Function Attrs: mustprogress nounwind uwtable
define linkonce_odr ptr @_ZNSt6vectorIN6duckdb10unique_ptrINS0_12ColumnReaderESt14default_deleteIS2_ELb1EEESaIS5_EE5beginEv(ptr noundef nonnull align 8 dereferenceable(24) %0) #7 comdat align 2 {
  %2 = alloca %"class.__gnu_cxx::__normal_iterator", align 8
  %3 = alloca ptr, align 8
  store ptr %0, ptr %3, align 8, !tbaa !379
  %4 = load ptr, ptr %3, align 8
  %5 = getelementptr inbounds nuw %"struct.std::_Vector_base.342", ptr %4, i32 0, i32 0
  %6 = getelementptr inbounds nuw %"struct.std::_Vector_base<duckdb::unique_ptr<duckdb::ColumnReader>, std::allocator<duckdb::unique_ptr<duckdb::ColumnReader>>>::_Vector_impl_data", ptr %5, i32 0, i32 0
  call void @_ZN9__gnu_cxx17__normal_iteratorIPN6duckdb10unique_ptrINS1_12ColumnReaderESt14default_deleteIS3_ELb1EEESt6vectorIS6_SaIS6_EEEC2ERKS7_(ptr noundef nonnull align 8 dereferenceable(8) %2, ptr noundef nonnull align 8 dereferenceable(8) %6) #3
  %7 = getelementptr inbounds nuw %"class.__gnu_cxx::__normal_iterator", ptr %2, i32 0, i32 0
  %8 = load ptr, ptr %7, align 8
  ret ptr %8
}

; Function Attrs: mustprogress uwtable
define noundef i64 @_ZN6duckdb18StructColumnReader19TotalCompressedSizeEv(ptr noundef nonnull align 8 dereferenceable(568) %0) unnamed_addr #4 align 2 {
  %2 = alloca ptr, align 8
  %3 = alloca i64, align 8
  %4 = alloca ptr, align 8
  %5 = alloca %"class.__gnu_cxx::__normal_iterator", align 8
  %6 = alloca %"class.__gnu_cxx::__normal_iterator", align 8
  %7 = alloca i32, align 4
  %8 = alloca ptr, align 8
  store ptr %0, ptr %2, align 8, !tbaa !373
  %9 = load ptr, ptr %2, align 8
  call void @llvm.lifetime.start.p0(i64 8, ptr %3) #3
  store i64 0, ptr %3, align 8, !tbaa !206
  call void @llvm.lifetime.start.p0(i64 8, ptr %4) #3
  %10 = getelementptr inbounds nuw %"class.duckdb::StructColumnReader", ptr %9, i32 0, i32 1
  store ptr %10, ptr %4, align 8, !tbaa !375
  call void @llvm.lifetime.start.p0(i64 8, ptr %5) #3
  %11 = load ptr, ptr %4, align 8, !tbaa !375
  %12 = call ptr @_ZNSt6vectorIN6duckdb10unique_ptrINS0_12ColumnReaderESt14default_deleteIS2_ELb1EEESaIS5_EE5beginEv(ptr noundef nonnull align 8 dereferenceable(24) %11) #3
  %13 = getelementptr inbounds nuw %"class.__gnu_cxx::__normal_iterator", ptr %5, i32 0, i32 0
  store ptr %12, ptr %13, align 8
  call void @llvm.lifetime.start.p0(i64 8, ptr %6) #3
  %14 = load ptr, ptr %4, align 8, !tbaa !375
  %15 = call ptr @_ZNSt6vectorIN6duckdb10unique_ptrINS0_12ColumnReaderESt14default_deleteIS2_ELb1EEESaIS5_EE3endEv(ptr noundef nonnull align 8 dereferenceable(24) %14) #3
  %16 = getelementptr inbounds nuw %"class.__gnu_cxx::__normal_iterator", ptr %6, i32 0, i32 0
  store ptr %15, ptr %16, align 8
  br label %17

17:                                               ; preds = %37, %1
  %18 = call noundef zeroext i1 @_ZN9__gnu_cxxneIPN6duckdb10unique_ptrINS1_12ColumnReaderESt14default_deleteIS3_ELb1EEESt6vectorIS6_SaIS6_EEEEbRKNS_17__normal_iteratorIT_T0_EESG_(ptr noundef nonnull align 8 dereferenceable(8) %5, ptr noundef nonnull align 8 dereferenceable(8) %6) #3
  br i1 %18, label %20, label %19

19:                                               ; preds = %17
  store i32 2, ptr %7, align 4
  call void @llvm.lifetime.end.p0(i64 8, ptr %6) #3
  call void @llvm.lifetime.end.p0(i64 8, ptr %5) #3
  call void @llvm.lifetime.end.p0(i64 8, ptr %4) #3
  br label %39

20:                                               ; preds = %17
  call void @llvm.lifetime.start.p0(i64 8, ptr %8) #3
  %21 = call noundef nonnull align 8 dereferenceable(8) ptr @_ZNK9__gnu_cxx17__normal_iteratorIPN6duckdb10unique_ptrINS1_12ColumnReaderESt14default_deleteIS3_ELb1EEESt6vectorIS6_SaIS6_EEEdeEv(ptr noundef nonnull align 8 dereferenceable(8) %5) #3
  store ptr %21, ptr %8, align 8, !tbaa !8
  %22 = load ptr, ptr %8, align 8, !tbaa !8
  %23 = call noundef zeroext i1 @_ZNKSt10unique_ptrIN6duckdb12ColumnReaderESt14default_deleteIS1_EEcvbEv(ptr noundef nonnull align 8 dereferenceable(8) %22) #3
  br i1 %23, label %25, label %24

24:                                               ; preds = %20
  store i32 3, ptr %7, align 4
  br label %34

25:                                               ; preds = %20
  %26 = load ptr, ptr %8, align 8, !tbaa !8
  %27 = call noundef ptr @_ZNK6duckdb10unique_ptrINS_12ColumnReaderESt14default_deleteIS1_ELb1EEptEv(ptr noundef nonnull align 8 dereferenceable(8) %26)
  %28 = load ptr, ptr %27, align 8, !tbaa !12
  %29 = getelementptr inbounds ptr, ptr %28, i64 8
  %30 = load ptr, ptr %29, align 8
  %31 = call noundef i64 %30(ptr noundef nonnull align 8 dereferenceable(544) %27)
  %32 = load i64, ptr %3, align 8, !tbaa !206
  %33 = add i64 %32, %31
  store i64 %33, ptr %3, align 8, !tbaa !206
  store i32 0, ptr %7, align 4
  br label %34

34:                                               ; preds = %25, %24
  call void @llvm.lifetime.end.p0(i64 8, ptr %8) #3
  %35 = load i32, ptr %7, align 4
  switch i32 %35, label %41 [
    i32 0, label %36
    i32 3, label %37
  ]

36:                                               ; preds = %34
  br label %37

37:                                               ; preds = %36, %34
  %38 = call noundef nonnull align 8 dereferenceable(8) ptr @_ZN9__gnu_cxx17__normal_iteratorIPN6duckdb10unique_ptrINS1_12ColumnReaderESt14default_deleteIS3_ELb1EEESt6vectorIS6_SaIS6_EEEppEv(ptr noundef nonnull align 8 dereferenceable(8) %5) #3
  br label %17

39:                                               ; preds = %19
  %40 = load i64, ptr %3, align 8, !tbaa !206
  store i32 1, ptr %7, align 4
  call void @llvm.lifetime.end.p0(i64 8, ptr %3) #3
  ret i64 %40

41:                                               ; preds = %34
  unreachable
}