; Function Attrs: mustprogress uwtable
define noundef i64 @_ZN6duckdb18StructColumnReader19TotalCompressedSizeEv(ptr noundef nonnull readonly align 8 captures(none) dereferenceable(568) %0) unnamed_addr #3 align 2 {
  %2 = getelementptr inbounds nuw i8, ptr %0, i64 544
  %3 = load ptr, ptr %2, align 8, !tbaa !405
  %4 = getelementptr inbounds nuw i8, ptr %0, i64 552
  %5 = load ptr, ptr %4, align 8, !tbaa !405
  %.not10 = icmp eq ptr %3, %5
  br i1 %.not10, label %._crit_edge, label %.lr.ph

._crit_edge:                                      ; preds = %14, %1
  %.0.lcssa = phi i64 [ 0, %1 ], [ %.1, %14 ]
  ret i64 %.0.lcssa

.lr.ph:                                           ; preds = %1, %14
  %.012 = phi i64 [ %.1, %14 ], [ 0, %1 ]
  %.sroa.06.011 = phi ptr [ %15, %14 ], [ %3, %1 ]
  %6 = load ptr, ptr %.sroa.06.011, align 8, !tbaa !6
  %.not9 = icmp eq ptr %6, null
  br i1 %.not9, label %14, label %7

7:                                                ; preds = %.lr.ph
  %8 = tail call noundef ptr @_ZNK6duckdb10unique_ptrINS_12ColumnReaderESt14default_deleteIS1_ELb1EEptEv(ptr noundef nonnull align 8 dereferenceable(8) %.sroa.06.011)
  %9 = load ptr, ptr %8, align 8, !tbaa !3
  %10 = getelementptr inbounds nuw i8, ptr %9, i64 64
  %11 = load ptr, ptr %10, align 8
  %12 = tail call noundef i64 %11(ptr noundef nonnull align 8 dereferenceable(544) %8)
  %13 = add i64 %12, %.012
  br label %14

14:                                               ; preds = %.lr.ph, %7
  %.1 = phi i64 [ %13, %7 ], [ %.012, %.lr.ph ]
  %15 = getelementptr inbounds nuw i8, ptr %.sroa.06.011, i64 8
  %.not = icmp eq ptr %15, %5
  br i1 %.not, label %._crit_edge, label %.lr.ph
}